; Function Attrs: nounwind uwtable
define internal noundef zeroext i1 @SlruScanDirCbDeleteCutoff(ptr noundef %0, ptr readnone captures(none) %1, i64 noundef %2, ptr noundef readonly captures(none) %3) #3 {
  %5 = load i64, ptr %3, align 8
  %6 = getelementptr inbounds nuw i8, ptr %0, i64 16
  %7 = load ptr, ptr %6, align 8
  %8 = tail call zeroext i1 %7(i64 noundef %2, i64 noundef %5) #15
  br i1 %8, label %SlruMayDeleteSegment.exit, label %SlruMayDeleteSegment.exit.thread

SlruMayDeleteSegment.exit:                        ; preds = %4
  %9 = add i64 %2, 31
  %10 = load ptr, ptr %6, align 8
  %11 = tail call zeroext i1 %10(i64 noundef %9, i64 noundef %5) #15
  br i1 %11, label %12, label %SlruMayDeleteSegment.exit.thread

12:                                               ; preds = %SlruMayDeleteSegment.exit
  %13 = sdiv i64 %2, 32
  tail call fastcc void @SlruInternalDeleteSegment(ptr noundef nonnull %0, i64 noundef %13)
  br label %SlruMayDeleteSegment.exit.thread

SlruMayDeleteSegment.exit.thread:                 ; preds = %4, %12, %SlruMayDeleteSegment.exit
  ret i1 false
}